target datalayout = "e-m:e-p270:32:32-p271:32:32-p272:64:64-i64:64-i128:128-f80:128-n8:16:32:64-S128"
target triple = "x86_64-pc-linux-gnu"

%struct.AVChannelLayout = type { i32, i32, %union.anon, ptr }
%union.anon = type { i64 }
%struct.AVCodecContext = type { ptr, i32, i32, ptr, i32, i32, ptr, ptr, ptr, i64, i32, i32, ptr, i32, %struct.AVRational, %struct.AVRational, %struct.AVRational, i32, i32, i32, i32, i32, %struct.AVRational, i32, i32, i32, i32, i32, i32, i32, i32, i32, i32, i32, ptr, ptr, i32, float, float, float, float, float, float, float, float, float, i32, i32, i32, i32, i32, i32, i32, i32, i32, i32, i32, i32, ptr, ptr, ptr, i32, i32, i32, i32, i32, i32, i32, i32, i32, i32, %struct.AVChannelLayout, i32, i32, i32, i32, i32, i32, i32, i32, ptr, i32, i32, i32, float, float, i32, i32, i32, i32, i32, ptr, i64, i64, float, float, i32, i32, ptr, ptr, i32, i32, i32, i32, i32, ptr, ptr, ptr, ptr, i32, i32, [8 x i64], i32, i32, i32, i32, i32, i32, i32, ptr, ptr, i32, i32, i32, i32, i32, i32, i32, i32, i32, i32, ptr, ptr, i32, i32, ptr, ptr, ptr, ptr, i32, i32, i64, i32, i32, i64, ptr, i64, ptr, i32, ptr, i32 }
%struct.AVRational = type { i32, i32 }
%struct.vorbis_context_s = type { ptr, %struct.GetBitContext, %struct.VorbisDSPContext, ptr, [2 x ptr], [2 x ptr], i8, i32, i8, i32, i32, i32, i32, [2 x i32], [2 x ptr], i16, ptr, i8, ptr, i8, ptr, i8, ptr, i8, ptr, i8, i8, ptr, ptr }
%struct.GetBitContext = type { ptr, ptr, i32, i32, i32 }
%struct.VorbisDSPContext = type { ptr }

@ff_vorbis_ch_layouts = external hidden constant [9 x %struct.AVChannelLayout], align 16
@.str.2 = private unnamed_addr constant [20 x i8] c"Extradata missing.\0A\00", align 1
@.str.3 = private unnamed_addr constant [20 x i8] c"Extradata corrupt.\0A\00", align 1
@.str.4 = private unnamed_addr constant [36 x i8] c"First header is not the id header.\0A\00", align 1
@.str.5 = private unnamed_addr constant [20 x i8] c"Id header corrupt.\0A\00", align 1
@.str.6 = private unnamed_addr constant [39 x i8] c"Third header is not the setup header.\0A\00", align 1
@.str.7 = private unnamed_addr constant [23 x i8] c"Setup header corrupt.\0A\00", align 1

; Function Attrs: inlinehint nounwind willreturn memory(none) uwtable
define internal i32 @zero_extend(i32 noundef %0, i32 noundef %1) #5 {
  %3 = alloca i32, align 4
  %4 = alloca i32, align 4
  store i32 %0, ptr %3, align 4, !tbaa !34
  store i32 %1, ptr %4, align 4, !tbaa !34
  %5 = load i32, ptr %3, align 4, !tbaa !34
  %6 = load i32, ptr %4, align 4, !tbaa !34
  %7 = zext i32 %6 to i64
  %8 = sub i64 32, %7
  %9 = trunc i64 %8 to i32
  %10 = shl i32 %5, %9
  %11 = load i32, ptr %4, align 4, !tbaa !34
  %12 = zext i32 %11 to i64
  %13 = sub i64 32, %12
  %14 = trunc i64 %13 to i32
  %15 = lshr i32 %10, %14
  ret i32 %15
}

; Function Attrs: inlinehint nounwind uwtable
define internal i32 @get_bits(ptr noundef %0, i32 noundef %1) #4 {
  %3 = alloca ptr, align 8
  %4 = alloca i32, align 4
  %5 = alloca i32, align 4
  %6 = alloca i32, align 4
  %7 = alloca i32, align 4
  %8 = alloca i32, align 4
  store ptr %0, ptr %3, align 8, !tbaa !35
  store i32 %1, ptr %4, align 4, !tbaa !34
  call void @llvm.lifetime.start.p0(i64 4, ptr %5) #13
  call void @llvm.lifetime.start.p0(i64 4, ptr %6) #13
  %9 = load ptr, ptr %3, align 8, !tbaa !35
  %10 = getelementptr inbounds nuw %struct.GetBitContext, ptr %9, i32 0, i32 2
  %11 = load i32, ptr %10, align 8, !tbaa !89
  store i32 %11, ptr %6, align 4, !tbaa !34
  call void @llvm.lifetime.start.p0(i64 4, ptr %7) #13
  call void @llvm.lifetime.start.p0(i64 4, ptr %8) #13
  %12 = load ptr, ptr %3, align 8, !tbaa !35
  %13 = getelementptr inbounds nuw %struct.GetBitContext, ptr %12, i32 0, i32 4
  %14 = load i32, ptr %13, align 8, !tbaa !87
  store i32 %14, ptr %8, align 4, !tbaa !34
  %15 = load ptr, ptr %3, align 8, !tbaa !35
  %16 = getelementptr inbounds nuw %struct.GetBitContext, ptr %15, i32 0, i32 0
  %17 = load ptr, ptr %16, align 8, !tbaa !85
  %18 = load i32, ptr %6, align 4, !tbaa !34
  %19 = lshr i32 %18, 3
  %20 = zext i32 %19 to i64
  %21 = getelementptr inbounds nuw i8, ptr %17, i64 %20
  %22 = load i32, ptr %21, align 1, !tbaa !63
  %23 = load i32, ptr %6, align 4, !tbaa !34
  %24 = and i32 %23, 7
  %25 = lshr i32 %22, %24
  store i32 %25, ptr %7, align 4, !tbaa !34
  %26 = load i32, ptr %7, align 4, !tbaa !34
  %27 = load i32, ptr %4, align 4, !tbaa !34
  %28 = call i32 @zero_extend(i32 noundef %26, i32 noundef %27) #14
  store i32 %28, ptr %5, align 4, !tbaa !34
  %29 = load i32, ptr %8, align 4, !tbaa !34
  %30 = load i32, ptr %6, align 4, !tbaa !34
  %31 = load i32, ptr %4, align 4, !tbaa !34
  %32 = add i32 %30, %31
  %33 = icmp ugt i32 %29, %32
  br i1 %33, label %34, label %38

34:                                               ; preds = %2
  %35 = load i32, ptr %6, align 4, !tbaa !34
  %36 = load i32, ptr %4, align 4, !tbaa !34
  %37 = add i32 %35, %36
  br label %40

38:                                               ; preds = %2
  %39 = load i32, ptr %8, align 4, !tbaa !34
  br label %40

40:                                               ; preds = %38, %34
  %41 = phi i32 [ %37, %34 ], [ %39, %38 ]
  store i32 %41, ptr %6, align 4, !tbaa !34
  %42 = load i32, ptr %6, align 4, !tbaa !34
  %43 = load ptr, ptr %3, align 8, !tbaa !35
  %44 = getelementptr inbounds nuw %struct.GetBitContext, ptr %43, i32 0, i32 2
  store i32 %42, ptr %44, align 8, !tbaa !89
  %45 = load i32, ptr %5, align 4, !tbaa !34
  call void @llvm.lifetime.end.p0(i64 4, ptr %8) #13
  call void @llvm.lifetime.end.p0(i64 4, ptr %7) #13
  call void @llvm.lifetime.end.p0(i64 4, ptr %6) #13
  call void @llvm.lifetime.end.p0(i64 4, ptr %5) #13
  ret i32 %45
}

; Function Attrs: inlinehint nounwind uwtable
define internal i32 @init_get_bits(ptr noundef %0, ptr noundef %1, i32 noundef %2) #4 {
  %4 = alloca ptr, align 8
  %5 = alloca ptr, align 8
  %6 = alloca i32, align 4
  %7 = alloca i32, align 4
  %8 = alloca i32, align 4
  store ptr %0, ptr %4, align 8, !tbaa !35
  store ptr %1, ptr %5, align 8, !tbaa !32
  store i32 %2, ptr %6, align 4, !tbaa !34
  call void @llvm.lifetime.start.p0(i64 4, ptr %7) #13
  call void @llvm.lifetime.start.p0(i64 4, ptr %8) #13
  store i32 0, ptr %8, align 4, !tbaa !34
  %9 = load i32, ptr %6, align 4, !tbaa !34
  %10 = icmp sge i32 %9, 2147483135
  br i1 %10, label %17, label %11

11:                                               ; preds = %3
  %12 = load i32, ptr %6, align 4, !tbaa !34
  %13 = icmp slt i32 %12, 0
  br i1 %13, label %17, label %14

14:                                               ; preds = %11
  %15 = load ptr, ptr %5, align 8, !tbaa !32
  %16 = icmp ne ptr %15, null
  br i1 %16, label %18, label %17

17:                                               ; preds = %14, %11, %3
  store i32 0, ptr %6, align 4, !tbaa !34
  store ptr null, ptr %5, align 8, !tbaa !32
  store i32 -1094995529, ptr %8, align 4, !tbaa !34
  br label %18

18:                                               ; preds = %17, %14
  %19 = load i32, ptr %6, align 4, !tbaa !34
  %20 = add nsw i32 %19, 7
  %21 = ashr i32 %20, 3
  store i32 %21, ptr %7, align 4, !tbaa !34
  %22 = load ptr, ptr %5, align 8, !tbaa !32
  %23 = load ptr, ptr %4, align 8, !tbaa !35
  %24 = getelementptr inbounds nuw %struct.GetBitContext, ptr %23, i32 0, i32 0
  store ptr %22, ptr %24, align 8, !tbaa !85
  %25 = load i32, ptr %6, align 4, !tbaa !34
  %26 = load ptr, ptr %4, align 8, !tbaa !35
  %27 = getelementptr inbounds nuw %struct.GetBitContext, ptr %26, i32 0, i32 3
  store i32 %25, ptr %27, align 4, !tbaa !86
  %28 = load i32, ptr %6, align 4, !tbaa !34
  %29 = add nsw i32 %28, 8
  %30 = load ptr, ptr %4, align 8, !tbaa !35
  %31 = getelementptr inbounds nuw %struct.GetBitContext, ptr %30, i32 0, i32 4
  store i32 %29, ptr %31, align 8, !tbaa !87
  %32 = load ptr, ptr %5, align 8, !tbaa !32
  %33 = load i32, ptr %7, align 4, !tbaa !34
  %34 = sext i32 %33 to i64
  %35 = getelementptr inbounds i8, ptr %32, i64 %34
  %36 = load ptr, ptr %4, align 8, !tbaa !35
  %37 = getelementptr inbounds nuw %struct.GetBitContext, ptr %36, i32 0, i32 1
  store ptr %35, ptr %37, align 8, !tbaa !88
  %38 = load ptr, ptr %4, align 8, !tbaa !35
  %39 = getelementptr inbounds nuw %struct.GetBitContext, ptr %38, i32 0, i32 2
  store i32 0, ptr %39, align 8, !tbaa !89
  %40 = load i32, ptr %8, align 4, !tbaa !34
  call void @llvm.lifetime.end.p0(i64 4, ptr %8) #13
  call void @llvm.lifetime.end.p0(i64 4, ptr %7) #13
  ret i32 %40
}

; Function Attrs: cold nounwind optsize uwtable
define internal i32 @vorbis_decode_init(ptr noundef %0) #0 {
  %2 = alloca i32, align 4
  %3 = alloca ptr, align 8
  %4 = alloca ptr, align 8
  %5 = alloca ptr, align 8
  %6 = alloca i32, align 4
  %7 = alloca [3 x ptr], align 16
  %8 = alloca [3 x i32], align 4
  %9 = alloca ptr, align 8
  %10 = alloca i32, align 4
  %11 = alloca i32, align 4
  %12 = alloca i32, align 4
  store ptr %0, ptr %3, align 8, !tbaa !4
  call void @llvm.lifetime.start.p0(i64 8, ptr %4) #13
  %13 = load ptr, ptr %3, align 8, !tbaa !4
  %14 = getelementptr inbounds nuw %struct.AVCodecContext, ptr %13, i32 0, i32 6
  %15 = load ptr, ptr %14, align 8, !tbaa !9
  store ptr %15, ptr %4, align 8, !tbaa !29
  call void @llvm.lifetime.start.p0(i64 8, ptr %5) #13
  %16 = load ptr, ptr %3, align 8, !tbaa !4
  %17 = getelementptr inbounds nuw %struct.AVCodecContext, ptr %16, i32 0, i32 12
  %18 = load ptr, ptr %17, align 8, !tbaa !31
  store ptr %18, ptr %5, align 8, !tbaa !32
  call void @llvm.lifetime.start.p0(i64 4, ptr %6) #13
  %19 = load ptr, ptr %3, align 8, !tbaa !4
  %20 = getelementptr inbounds nuw %struct.AVCodecContext, ptr %19, i32 0, i32 13
  %21 = load i32, ptr %20, align 8, !tbaa !33
  store i32 %21, ptr %6, align 4, !tbaa !34
  call void @llvm.lifetime.start.p0(i64 24, ptr %7) #13
  call void @llvm.lifetime.start.p0(i64 12, ptr %8) #13
  call void @llvm.lifetime.start.p0(i64 8, ptr %9) #13
  %22 = load ptr, ptr %4, align 8, !tbaa !29
  %23 = getelementptr inbounds nuw %struct.vorbis_context_s, ptr %22, i32 0, i32 1
  store ptr %23, ptr %9, align 8, !tbaa !35
  call void @llvm.lifetime.start.p0(i64 4, ptr %10) #13
  call void @llvm.lifetime.start.p0(i64 4, ptr %11) #13
  %24 = load ptr, ptr %3, align 8, !tbaa !4
  %25 = load ptr, ptr %4, align 8, !tbaa !29
  %26 = getelementptr inbounds nuw %struct.vorbis_context_s, ptr %25, i32 0, i32 0
  store ptr %24, ptr %26, align 8, !tbaa !37
  %27 = load ptr, ptr %4, align 8, !tbaa !29
  %28 = getelementptr inbounds nuw %struct.vorbis_context_s, ptr %27, i32 0, i32 2
  call void @ff_vorbisdsp_init(ptr noundef %28)
  %29 = load ptr, ptr %3, align 8, !tbaa !4
  %30 = getelementptr inbounds nuw %struct.AVCodecContext, ptr %29, i32 0, i32 70
  store i32 8, ptr %30, align 4, !tbaa !49
  %31 = load i32, ptr %6, align 4, !tbaa !34
  %32 = icmp ne i32 %31, 0
  br i1 %32, label %35, label %33

33:                                               ; preds = %1
  %34 = load ptr, ptr %3, align 8, !tbaa !4
  call void (ptr, i32, ptr, ...) @av_log(ptr noundef %34, i32 noundef 16, ptr noundef @.str.2)
  store i32 -1094995529, ptr %2, align 4
  store i32 1, ptr %12, align 4
  br label %126

35:                                               ; preds = %1
  %36 = load ptr, ptr %5, align 8, !tbaa !32
  %37 = load i32, ptr %6, align 4, !tbaa !34
  %38 = getelementptr inbounds [3 x ptr], ptr %7, i64 0, i64 0
  %39 = getelementptr inbounds [3 x i32], ptr %8, i64 0, i64 0
  %40 = call i32 @avpriv_split_xiph_headers(ptr noundef %36, i32 noundef %37, i32 noundef 30, ptr noundef %38, ptr noundef %39)
  store i32 %40, ptr %11, align 4, !tbaa !34
  %41 = icmp slt i32 %40, 0
  br i1 %41, label %42, label %45

42:                                               ; preds = %35
  %43 = load ptr, ptr %3, align 8, !tbaa !4
  call void (ptr, i32, ptr, ...) @av_log(ptr noundef %43, i32 noundef 16, ptr noundef @.str.3)
  %44 = load i32, ptr %11, align 4, !tbaa !34
  store i32 %44, ptr %2, align 4
  store i32 1, ptr %12, align 4
  br label %126

45:                                               ; preds = %35
  %46 = load ptr, ptr %9, align 8, !tbaa !35
  %47 = getelementptr inbounds [3 x ptr], ptr %7, i64 0, i64 0
  %48 = load ptr, ptr %47, align 16, !tbaa !32
  %49 = getelementptr inbounds [3 x i32], ptr %8, i64 0, i64 0
  %50 = load i32, ptr %49, align 4, !tbaa !34
  %51 = mul nsw i32 %50, 8
  %52 = call i32 @init_get_bits(ptr noundef %46, ptr noundef %48, i32 noundef %51)
  %53 = load ptr, ptr %9, align 8, !tbaa !35
  %54 = call i32 @get_bits(ptr noundef %53, i32 noundef 8)
  store i32 %54, ptr %10, align 4, !tbaa !34
  %55 = load i32, ptr %10, align 4, !tbaa !34
  %56 = icmp ne i32 %55, 1
  br i1 %56, label %57, label %59

57:                                               ; preds = %45
  %58 = load ptr, ptr %3, align 8, !tbaa !4
  call void (ptr, i32, ptr, ...) @av_log(ptr noundef %58, i32 noundef 16, ptr noundef @.str.4)
  store i32 -1094995529, ptr %2, align 4
  store i32 1, ptr %12, align 4
  br label %126

59:                                               ; preds = %45
  %60 = load ptr, ptr %4, align 8, !tbaa !29
  %61 = call i32 @vorbis_parse_id_hdr(ptr noundef %60)
  store i32 %61, ptr %11, align 4, !tbaa !34
  %62 = icmp ne i32 %61, 0
  br i1 %62, label %63, label %67

63:                                               ; preds = %59
  %64 = load ptr, ptr %3, align 8, !tbaa !4
  call void (ptr, i32, ptr, ...) @av_log(ptr noundef %64, i32 noundef 16, ptr noundef @.str.5)
  %65 = load ptr, ptr %4, align 8, !tbaa !29
  call void @vorbis_free(ptr noundef %65)
  %66 = load i32, ptr %11, align 4, !tbaa !34
  store i32 %66, ptr %2, align 4
  store i32 1, ptr %12, align 4
  br label %126

67:                                               ; preds = %59
  %68 = load ptr, ptr %9, align 8, !tbaa !35
  %69 = getelementptr inbounds [3 x ptr], ptr %7, i64 0, i64 2
  %70 = load ptr, ptr %69, align 16, !tbaa !32
  %71 = getelementptr inbounds [3 x i32], ptr %8, i64 0, i64 2
  %72 = load i32, ptr %71, align 4, !tbaa !34
  %73 = mul nsw i32 %72, 8
  %74 = call i32 @init_get_bits(ptr noundef %68, ptr noundef %70, i32 noundef %73)
  %75 = load ptr, ptr %9, align 8, !tbaa !35
  %76 = call i32 @get_bits(ptr noundef %75, i32 noundef 8)
  store i32 %76, ptr %10, align 4, !tbaa !34
  %77 = load i32, ptr %10, align 4, !tbaa !34
  %78 = icmp ne i32 %77, 5
  br i1 %78, label %79, label %82

79:                                               ; preds = %67
  %80 = load ptr, ptr %3, align 8, !tbaa !4
  call void (ptr, i32, ptr, ...) @av_log(ptr noundef %80, i32 noundef 16, ptr noundef @.str.6)
  %81 = load ptr, ptr %4, align 8, !tbaa !29
  call void @vorbis_free(ptr noundef %81)
  store i32 -1094995529, ptr %2, align 4
  store i32 1, ptr %12, align 4
  br label %126

82:                                               ; preds = %67
  %83 = load ptr, ptr %4, align 8, !tbaa !29
  %84 = call i32 @vorbis_parse_setup_hdr(ptr noundef %83)
  store i32 %84, ptr %11, align 4, !tbaa !34
  %85 = icmp ne i32 %84, 0
  br i1 %85, label %86, label %90

86:                                               ; preds = %82
  %87 = load ptr, ptr %3, align 8, !tbaa !4
  call void (ptr, i32, ptr, ...) @av_log(ptr noundef %87, i32 noundef 16, ptr noundef @.str.7)
  %88 = load ptr, ptr %4, align 8, !tbaa !29
  call void @vorbis_free(ptr noundef %88)
  %89 = load i32, ptr %11, align 4, !tbaa !34
  store i32 %89, ptr %2, align 4
  store i32 1, ptr %12, align 4
  br label %126

90:                                               ; preds = %82
  %91 = load ptr, ptr %3, align 8, !tbaa !4
  %92 = getelementptr inbounds nuw %struct.AVCodecContext, ptr %91, i32 0, i32 71
  call void @av_channel_layout_uninit(ptr noundef %92)
  %93 = load ptr, ptr %4, align 8, !tbaa !29
  %94 = getelementptr inbounds nuw %struct.vorbis_context_s, ptr %93, i32 0, i32 8
  %95 = load i8, ptr %94, align 8, !tbaa !50
  %96 = zext i8 %95 to i32
  %97 = icmp sgt i32 %96, 8
  br i1 %97, label %98, label %109

98:                                               ; preds = %90
  %99 = load ptr, ptr %3, align 8, !tbaa !4
  %100 = getelementptr inbounds nuw %struct.AVCodecContext, ptr %99, i32 0, i32 71
  %101 = getelementptr inbounds nuw %struct.AVChannelLayout, ptr %100, i32 0, i32 0
  store i32 0, ptr %101, align 8, !tbaa !51
  %102 = load ptr, ptr %4, align 8, !tbaa !29
  %103 = getelementptr inbounds nuw %struct.vorbis_context_s, ptr %102, i32 0, i32 8
  %104 = load i8, ptr %103, align 8, !tbaa !50
  %105 = zext i8 %104 to i32
  %106 = load ptr, ptr %3, align 8, !tbaa !4
  %107 = getelementptr inbounds nuw %struct.AVCodecContext, ptr %106, i32 0, i32 71
  %108 = getelementptr inbounds nuw %struct.AVChannelLayout, ptr %107, i32 0, i32 1
  store i32 %105, ptr %108, align 4, !tbaa !52
  br label %120

109:                                              ; preds = %90
  %110 = load ptr, ptr %3, align 8, !tbaa !4
  %111 = getelementptr inbounds nuw %struct.AVCodecContext, ptr %110, i32 0, i32 71
  %112 = load ptr, ptr %4, align 8, !tbaa !29
  %113 = getelementptr inbounds nuw %struct.vorbis_context_s, ptr %112, i32 0, i32 8
  %114 = load i8, ptr %113, align 8, !tbaa !50
  %115 = zext i8 %114 to i32
  %116 = sub nsw i32 %115, 1
  %117 = sext i32 %116 to i64
  %118 = getelementptr inbounds [9 x %struct.AVChannelLayout], ptr @ff_vorbis_ch_layouts, i64 0, i64 %117
  %119 = call i32 @av_channel_layout_copy(ptr noundef %111, ptr noundef %118)
  br label %120

120:                                              ; preds = %109, %98
  %121 = load ptr, ptr %4, align 8, !tbaa !29
  %122 = getelementptr inbounds nuw %struct.vorbis_context_s, ptr %121, i32 0, i32 9
  %123 = load i32, ptr %122, align 4, !tbaa !53
  %124 = load ptr, ptr %3, align 8, !tbaa !4
  %125 = getelementptr inbounds nuw %struct.AVCodecContext, ptr %124, i32 0, i32 69
  store i32 %123, ptr %125, align 8, !tbaa !54
  store i32 0, ptr %2, align 4
  store i32 1, ptr %12, align 4
  br label %126

126:                                              ; preds = %120, %86, %79, %63, %57, %42, %33
  call void @llvm.lifetime.end.p0(i64 4, ptr %11) #13
  call void @llvm.lifetime.end.p0(i64 4, ptr %10) #13
  call void @llvm.lifetime.end.p0(i64 8, ptr %9) #13
  call void @llvm.lifetime.end.p0(i64 12, ptr %8) #13
  call void @llvm.lifetime.end.p0(i64 24, ptr %7) #13
  call void @llvm.lifetime.end.p0(i64 4, ptr %6) #13
  call void @llvm.lifetime.end.p0(i64 8, ptr %5) #13
  call void @llvm.lifetime.end.p0(i64 8, ptr %4) #13
  %127 = load i32, ptr %2, align 4
  ret i32 %127
}