; Function Attrs: cold nounwind optsize uwtable
define internal i32 @vorbis_decode_init(ptr noundef %0) #0 {
  %2 = alloca [3 x ptr], align 16
  %3 = alloca [3 x i32], align 4
  %4 = getelementptr inbounds nuw i8, ptr %0, i64 32
  %5 = load ptr, ptr %4, align 8, !tbaa !4
  %6 = getelementptr inbounds nuw i8, ptr %0, i64 72
  %7 = load ptr, ptr %6, align 8, !tbaa !27
  %8 = getelementptr inbounds nuw i8, ptr %0, i64 80
  %9 = load i32, ptr %8, align 8, !tbaa !28
  call void @llvm.lifetime.start.p0(i64 24, ptr nonnull %2) #11
  call void @llvm.lifetime.start.p0(i64 12, ptr nonnull %3) #11
  %10 = getelementptr inbounds nuw i8, ptr %5, i64 8
  store ptr %0, ptr %5, align 8, !tbaa !29
  %11 = getelementptr inbounds nuw i8, ptr %5, i64 40
  tail call void @ff_vorbisdsp_init(ptr noundef nonnull %11) #11
  %12 = getelementptr inbounds nuw i8, ptr %0, i64 348
  store i32 8, ptr %12, align 4, !tbaa !42
  %.not = icmp eq i32 %9, 0
  br i1 %.not, label %13, label %14

13:                                               ; preds = %1
  tail call void (ptr, i32, ptr, ...) @av_log(ptr noundef nonnull %0, i32 noundef 16, ptr noundef nonnull @.str.2) #11
  br label %71

14:                                               ; preds = %1
  %15 = call i32 @avpriv_split_xiph_headers(ptr noundef %7, i32 noundef %9, i32 noundef 30, ptr noundef nonnull %2, ptr noundef nonnull %3) #11
  %16 = icmp slt i32 %15, 0
  br i1 %16, label %17, label %18

17:                                               ; preds = %14
  call void (ptr, i32, ptr, ...) @av_log(ptr noundef nonnull %0, i32 noundef 16, ptr noundef nonnull @.str.3) #11
  br label %71

18:                                               ; preds = %14
  %19 = load ptr, ptr %2, align 16, !tbaa !43
  %20 = load i32, ptr %3, align 4, !tbaa !44
  %21 = shl nsw i32 %20, 3
  %or.cond.i = icmp ult i32 %21, 2147483135
  %22 = icmp ne ptr %19, null
  %or.cond3.i = and i1 %22, %or.cond.i
  %.018.i = select i1 %or.cond3.i, i32 %21, i32 0
  %.017.i = select i1 %or.cond.i, ptr %19, ptr null
  %23 = lshr exact i32 %.018.i, 3
  store ptr %.017.i, ptr %10, align 8, !tbaa !45
  %24 = getelementptr inbounds nuw i8, ptr %5, i64 28
  store i32 %.018.i, ptr %24, align 4, !tbaa !46
  %25 = add nuw nsw i32 %.018.i, 8
  %26 = getelementptr inbounds nuw i8, ptr %5, i64 32
  store i32 %25, ptr %26, align 8, !tbaa !47
  %27 = zext nneg i32 %23 to i64
  %28 = getelementptr inbounds nuw i8, ptr %.017.i, i64 %27
  %29 = getelementptr inbounds nuw i8, ptr %5, i64 16
  store ptr %28, ptr %29, align 8, !tbaa !48
  %30 = getelementptr inbounds nuw i8, ptr %5, i64 24
  store i32 0, ptr %30, align 8, !tbaa !49
  %31 = load i32, ptr %19, align 1, !tbaa !50
  %32 = and i32 %31, 255
  store i32 8, ptr %30, align 8, !tbaa !49
  %.not45 = icmp eq i32 %32, 1
  br i1 %.not45, label %34, label %33

33:                                               ; preds = %18
  call void (ptr, i32, ptr, ...) @av_log(ptr noundef nonnull %0, i32 noundef 16, ptr noundef nonnull @.str.4) #11
  br label %71

34:                                               ; preds = %18
  %35 = call fastcc i32 @vorbis_parse_id_hdr(ptr noundef nonnull %5)
  %.not46 = icmp eq i32 %35, 0
  br i1 %.not46, label %37, label %36

36:                                               ; preds = %34
  call void (ptr, i32, ptr, ...) @av_log(ptr noundef nonnull %0, i32 noundef 16, ptr noundef nonnull @.str.5) #11
  call fastcc void @vorbis_free(ptr noundef nonnull %5)
  br label %71

37:                                               ; preds = %34
  %38 = getelementptr inbounds nuw i8, ptr %2, i64 16
  %39 = load ptr, ptr %38, align 16, !tbaa !43
  %40 = getelementptr inbounds nuw i8, ptr %3, i64 8
  %41 = load i32, ptr %40, align 4, !tbaa !44
  %42 = shl nsw i32 %41, 3
  %or.cond.i49 = icmp ult i32 %42, 2147483135
  %43 = icmp ne ptr %39, null
  %or.cond3.i50 = and i1 %43, %or.cond.i49
  %.018.i51 = select i1 %or.cond3.i50, i32 %42, i32 0
  %.017.i52 = select i1 %or.cond.i49, ptr %39, ptr null
  %44 = lshr exact i32 %.018.i51, 3
  store ptr %.017.i52, ptr %10, align 8, !tbaa !45
  store i32 %.018.i51, ptr %24, align 4, !tbaa !46
  %45 = add nuw nsw i32 %.018.i51, 8
  store i32 %45, ptr %26, align 8, !tbaa !47
  %46 = zext nneg i32 %44 to i64
  %47 = getelementptr inbounds nuw i8, ptr %.017.i52, i64 %46
  store ptr %47, ptr %29, align 8, !tbaa !48
  store i32 0, ptr %30, align 8, !tbaa !49
  %48 = load i32, ptr %39, align 1, !tbaa !50
  %49 = and i32 %48, 255
  store i32 8, ptr %30, align 8, !tbaa !49
  %.not47 = icmp eq i32 %49, 5
  br i1 %.not47, label %51, label %50

50:                                               ; preds = %37
  call void (ptr, i32, ptr, ...) @av_log(ptr noundef nonnull %0, i32 noundef 16, ptr noundef nonnull @.str.6) #11
  call fastcc void @vorbis_free(ptr noundef nonnull %5)
  br label %71

51:                                               ; preds = %37
  %52 = call fastcc i32 @vorbis_parse_setup_hdr(ptr noundef nonnull %5)
  %.not48 = icmp eq i32 %52, 0
  br i1 %.not48, label %54, label %53

53:                                               ; preds = %51
  call void (ptr, i32, ptr, ...) @av_log(ptr noundef nonnull %0, i32 noundef 16, ptr noundef nonnull @.str.7) #11
  call fastcc void @vorbis_free(ptr noundef nonnull %5)
  br label %71

54:                                               ; preds = %51
  %55 = getelementptr inbounds nuw i8, ptr %0, i64 352
  call void @av_channel_layout_uninit(ptr noundef nonnull %55) #11
  %56 = getelementptr inbounds nuw i8, ptr %5, i64 96
  %57 = load i8, ptr %56, align 8, !tbaa !51
  %58 = icmp ugt i8 %57, 8
  br i1 %58, label %59, label %62

59:                                               ; preds = %54
  store i32 0, ptr %55, align 8, !tbaa !52
  %60 = zext i8 %57 to i32
  %61 = getelementptr inbounds nuw i8, ptr %0, i64 356
  store i32 %60, ptr %61, align 4, !tbaa !53
  br label %67

62:                                               ; preds = %54
  %63 = zext nneg i8 %57 to i64
  %64 = add nsw i64 %63, -1
  %65 = getelementptr inbounds [9 x %struct.AVChannelLayout], ptr @ff_vorbis_ch_layouts, i64 0, i64 %64
  %66 = call i32 @av_channel_layout_copy(ptr noundef nonnull %55, ptr noundef nonnull %65) #11
  br label %67

67:                                               ; preds = %62, %59
  %68 = getelementptr inbounds nuw i8, ptr %5, i64 100
  %69 = load i32, ptr %68, align 4, !tbaa !54
  %70 = getelementptr inbounds nuw i8, ptr %0, i64 344
  store i32 %69, ptr %70, align 8, !tbaa !55
  br label %71

71:                                               ; preds = %67, %53, %50, %36, %33, %17, %13
  %.0 = phi i32 [ %15, %17 ], [ -1094995529, %33 ], [ %35, %36 ], [ -1094995529, %50 ], [ %52, %53 ], [ 0, %67 ], [ -1094995529, %13 ]
  call void @llvm.lifetime.end.p0(i64 12, ptr nonnull %3) #11
  call void @llvm.lifetime.end.p0(i64 24, ptr nonnull %2) #11
  ret i32 %.0
}